; Function Attrs: mustprogress nofree norecurse nosync nounwind willreturn memory(argmem: write) uwtable
define void @_ZN11OpenImageIO6v3_1_019tostring_formattingC2EPKcS3_S3_S3_S3_S3_S3_S3_S3_S3_iS3_(ptr noundef nonnull writeonly align 8 captures(none) dereferenceable(113) initializes((0, 84), (88, 113)) %0, ptr noundef %1, ptr noundef %2, ptr noundef %3, ptr noundef %4, ptr noundef %5, ptr noundef %6, ptr noundef %7, ptr noundef %8, ptr noundef %9, ptr noundef %10, i32 noundef %11, ptr noundef %12) unnamed_addr #11 align 2 {
  store ptr %1, ptr %0, align 8, !tbaa !48
  %14 = getelementptr inbounds nuw i8, ptr %0, i64 8
  store ptr %2, ptr %14, align 8, !tbaa !50
  %15 = getelementptr inbounds nuw i8, ptr %0, i64 16
  store ptr %3, ptr %15, align 8, !tbaa !51
  %16 = getelementptr inbounds nuw i8, ptr %0, i64 24
  store ptr %4, ptr %16, align 8, !tbaa !52
  %17 = getelementptr inbounds nuw i8, ptr %0, i64 32
  store ptr %5, ptr %17, align 8, !tbaa !53
  %18 = getelementptr inbounds nuw i8, ptr %0, i64 40
  store ptr %6, ptr %18, align 8, !tbaa !54
  %19 = getelementptr inbounds nuw i8, ptr %0, i64 48
  store ptr %7, ptr %19, align 8, !tbaa !55
  %20 = getelementptr inbounds nuw i8, ptr %0, i64 56
  store ptr %8, ptr %20, align 8, !tbaa !56
  %21 = getelementptr inbounds nuw i8, ptr %0, i64 64
  store ptr %9, ptr %21, align 8, !tbaa !57
  %22 = getelementptr inbounds nuw i8, ptr %0, i64 72
  store ptr %10, ptr %22, align 8, !tbaa !58
  %23 = getelementptr inbounds nuw i8, ptr %0, i64 80
  store i32 %11, ptr %23, align 8, !tbaa !59
  %24 = getelementptr inbounds nuw i8, ptr %0, i64 88
  store ptr %12, ptr %24, align 8, !tbaa !60
  %25 = getelementptr inbounds nuw i8, ptr %0, i64 96
  store ptr @.str.10, ptr %25, align 8, !tbaa !61
  %26 = getelementptr inbounds nuw i8, ptr %0, i64 104
  store ptr @.str.10, ptr %26, align 8, !tbaa !62
  %27 = getelementptr inbounds nuw i8, ptr %0, i64 112
  store i8 1, ptr %27, align 8, !tbaa !63
  ret void
}